BL51 BANKED LINKER/LOCATER V6.22.4.0                                                    12/13/2024  17:02:31  PAGE 1


BL51 BANKED LINKER/LOCATER V6.22.4.0, INVOKED BY:
D:\KEIL_STM32\C51\BIN\BL51.EXE ..\OBJ\main.obj, ..\OBJ\gui.obj, ..\OBJ\test.obj, ..\OBJ\sys.obj, ..\OBJ\oled.obj, ..\OBJ
>> \iic.obj TO ..\OBJ\TEST_OLED PRINT (.\TEST_OLED.m51) RAMSIZE (256)


MEMORY MODEL: SMALL


INPUT MODULES INCLUDED:
  ..\OBJ\main.obj (MAIN)
  ..\OBJ\gui.obj (GUI)
  ..\OBJ\test.obj (TEST)
  ..\OBJ\sys.obj (SYS)
  ..\OBJ\oled.obj (OLED)
  ..\OBJ\iic.obj (IIC)
  D:\KEIL_STM32\C51\LIB\C51S.LIB (?C_STARTUP)
  D:\KEIL_STM32\C51\LIB\C51S.LIB (?C?CLDPTR)
  D:\KEIL_STM32\C51\LIB\C51S.LIB (?C?CLDOPTR)
  D:\KEIL_STM32\C51\LIB\C51S.LIB (?C?LMUL)
  D:\KEIL_STM32\C51\LIB\C51S.LIB (?C?ULDIV)
  D:\KEIL_STM32\C51\LIB\C51S.LIB (?C?OFFXADD)


LINK MAP OF MODULE:  ..\OBJ\TEST_OLED (MAIN)


            TYPE    BASE      LENGTH    RELOCATION   SEGMENT NAME
            -----------------------------------------------------

            * * * * * * *   D A T A   M E M O R Y   * * * * * * *
            REG     0000H     0008H     ABSOLUTE     "REG BANK 0"
            DATA    0008H     0018H     UNIT         _DATA_GROUP_
            IDATA   0020H     0001H     UNIT         ?STACK

            * * * * * * *   C O D E   M E M O R Y   * * * * * * *
            CODE    0000H     0003H     ABSOLUTE     
            CODE    0003H     0C26H     UNIT         ?CO?GUI
            CODE    0C29H     0524H     UNIT         ?CO?TEST
            CODE    114DH     016FH     UNIT         ?C?LIB_CODE
            CODE    12BCH     0105H     UNIT         ?PR?_GUI_SHOWCHAR?GUI
            CODE    13C1H     00F8H     UNIT         ?PR?_GUI_SHOWFONT24?GUI
            CODE    14B9H     00F8H     UNIT         ?PR?_GUI_SHOWFONT32?GUI
            CODE    15B1H     00E3H     UNIT         ?PR?_GUI_SHOWFONT16?GUI
            CODE    1694H     00E3H     UNIT         ?PR?OLED_INIT?OLED
            CODE    1777H     009FH     UNIT         ?PR?_GUI_SHOWNUM?GUI
            CODE    1816H     009FH     UNIT         ?PR?TEST_CHINESE?TEST
            CODE    18B5H     0085H     UNIT         ?PR?_GUI_DRAWBMP?GUI
            CODE    193AH     0083H     UNIT         ?PR?TEST_NUMBER_CHARACTER?TEST
            CODE    19BDH     007DH     UNIT         ?PR?_GUI_SHOWCHINESE?GUI
            CODE    1A3AH     0063H     UNIT         ?PR?_GUI_SHOWSTRING?GUI
            CODE    1A9DH     005AH     UNIT         ?PR?TEST_MAINPAGE?TEST
            CODE    1AF7H     0058H     UNIT         ?PR?TEST_ENGLISH?TEST
            CODE    1B4FH     0051H     UNIT         ?PR?_GUI_FILL?GUI
            CODE    1BA0H     0046H     UNIT         ?PR?_OLED_CLEAR?OLED
            CODE    1BE6H     0041H     UNIT         ?PR?MAIN?MAIN
            CODE    1C27H     003CH     UNIT         ?PR?TEST_COLOR?TEST
            CODE    1C63H     0039H     UNIT         ?PR?_MYPOW?GUI
            CODE    1C9CH     0034H     UNIT         ?PR?_OLED_SET_POS?OLED
BL51 BANKED LINKER/LOCATER V6.22.4.0                                                  12/13/2024  17:02:31  PAGE 2


            CODE    1CD0H     0026H     UNIT         ?PR?_WRITE_IIC_BYTE?IIC
            CODE    1CF6H     0020H     UNIT         ?PR?_DELAY_MS?SYS
            CODE    1D16H     001EH     UNIT         ?PR?TEST_BMP?TEST
            CODE    1D34H     0017H     UNIT         ?PR?_OLED_WR_BYTE?OLED
            CODE    1D4BH     0010H     UNIT         ?PR?IIC_WAIT_ACK?IIC
            CODE    1D5BH     000EH     UNIT         ?PR?_WRITE_IIC_COMMAND?IIC
            CODE    1D69H     000EH     UNIT         ?PR?_WRITE_IIC_DATA?IIC
            CODE    1D77H     000CH     UNIT         ?C_C51STARTUP
            CODE    1D83H     0009H     UNIT         ?PR?IIC_START?IIC
            CODE    1D8CH     0005H     UNIT         ?PR?IIC_STOP?IIC



OVERLAY MAP OF MODULE:   ..\OBJ\TEST_OLED (MAIN)


SEGMENT                                  DATA_GROUP 
  +--> CALLED SEGMENT                  START    LENGTH
------------------------------------------------------
?C_C51STARTUP                          -----    -----
  +--> ?PR?MAIN?MAIN

?PR?MAIN?MAIN                          -----    -----
  +--> ?PR?OLED_INIT?OLED
  +--> ?PR?_OLED_CLEAR?OLED
  +--> ?PR?TEST_MAINPAGE?TEST
  +--> ?PR?TEST_COLOR?TEST
  +--> ?PR?TEST_ENGLISH?TEST
  +--> ?PR?TEST_NUMBER_CHARACTER?TEST
  +--> ?PR?TEST_CHINESE?TEST
  +--> ?PR?TEST_BMP?TEST

?PR?OLED_INIT?OLED                     -----    -----
  +--> ?PR?_OLED_WR_BYTE?OLED

?PR?_OLED_WR_BYTE?OLED                 001EH    0002H
  +--> ?PR?_WRITE_IIC_DATA?IIC
  +--> ?PR?_WRITE_IIC_COMMAND?IIC

?PR?_WRITE_IIC_DATA?IIC                -----    -----
  +--> ?PR?_WRITE_IIC_BYTE?IIC
  +--> ?PR?IIC_WAIT_ACK?IIC
  +--> ?PR?IIC_STOP?IIC

?PR?_WRITE_IIC_BYTE?IIC                -----    -----
  +--> ?PR?IIC_START?IIC

?PR?IIC_WAIT_ACK?IIC                   -----    -----
  +--> ?PR?_WRITE_IIC_BYTE?IIC

?PR?_WRITE_IIC_COMMAND?IIC             -----    -----
  +--> ?PR?_WRITE_IIC_BYTE?IIC
  +--> ?PR?IIC_WAIT_ACK?IIC
  +--> ?PR?IIC_STOP?IIC

?PR?_OLED_CLEAR?OLED                   0008H    0003H
  +--> ?PR?_OLED_WR_BYTE?OLED
BL51 BANKED LINKER/LOCATER V6.22.4.0                                                  12/13/2024  17:02:31  PAGE 3



?PR?TEST_MAINPAGE?TEST                 -----    -----
  +--> ?CO?TEST
  +--> ?PR?_GUI_SHOWSTRING?GUI
  +--> ?PR?_DELAY_MS?SYS

?PR?_GUI_SHOWSTRING?GUI                0008H    0009H
  +--> ?PR?_GUI_SHOWCHAR?GUI

?PR?_GUI_SHOWCHAR?GUI                  0015H    0008H
  +--> ?PR?_OLED_SET_POS?OLED
  +--> ?CO?GUI
  +--> ?PR?_OLED_WR_BYTE?OLED

?PR?_OLED_SET_POS?OLED                 001DH    0001H
  +--> ?PR?_OLED_WR_BYTE?OLED

?PR?TEST_COLOR?TEST                    -----    -----
  +--> ?PR?_GUI_FILL?GUI
  +--> ?CO?TEST
  +--> ?PR?_GUI_SHOWSTRING?GUI
  +--> ?PR?_DELAY_MS?SYS

?PR?_GUI_FILL?GUI                      0008H    000AH
  +--> ?PR?_OLED_SET_POS?OLED
  +--> ?PR?_OLED_WR_BYTE?OLED

?PR?TEST_ENGLISH?TEST                  -----    -----
  +--> ?CO?TEST
  +--> ?PR?_GUI_SHOWSTRING?GUI
  +--> ?PR?_DELAY_MS?SYS

?PR?TEST_NUMBER_CHARACTER?TEST         -----    -----
  +--> ?PR?_GUI_FILL?GUI
  +--> ?CO?TEST
  +--> ?PR?_GUI_SHOWSTRING?GUI
  +--> ?PR?_GUI_SHOWNUM?GUI
  +--> ?PR?_DELAY_MS?SYS
  +--> ?PR?_OLED_CLEAR?OLED

?PR?_GUI_SHOWNUM?GUI                   0008H    000DH
  +--> ?PR?_MYPOW?GUI
  +--> ?PR?_GUI_SHOWCHAR?GUI

?PR?_MYPOW?GUI                         0015H    0006H

?PR?TEST_CHINESE?TEST                  -----    -----
  +--> ?CO?TEST
  +--> ?PR?_GUI_SHOWSTRING?GUI
  +--> ?PR?_GUI_SHOWCHINESE?GUI
  +--> ?PR?_DELAY_MS?SYS
  +--> ?PR?_OLED_CLEAR?OLED

?PR?_GUI_SHOWCHINESE?GUI               0008H    0007H
  +--> ?PR?_GUI_SHOWFONT16?GUI
  +--> ?PR?_GUI_SHOWFONT24?GUI
  +--> ?PR?_GUI_SHOWFONT32?GUI
BL51 BANKED LINKER/LOCATER V6.22.4.0                                                  12/13/2024  17:02:31  PAGE 4



?PR?_GUI_SHOWFONT16?GUI                000FH    000CH
  +--> ?CO?GUI
  +--> ?PR?_OLED_SET_POS?OLED
  +--> ?PR?_OLED_WR_BYTE?OLED

?PR?_GUI_SHOWFONT24?GUI                000FH    000CH
  +--> ?CO?GUI
  +--> ?PR?_OLED_SET_POS?OLED
  +--> ?PR?_OLED_WR_BYTE?OLED

?PR?_GUI_SHOWFONT32?GUI                000FH    000CH
  +--> ?CO?GUI
  +--> ?PR?_OLED_SET_POS?OLED
  +--> ?PR?_OLED_WR_BYTE?OLED

?PR?TEST_BMP?TEST                      -----    -----
  +--> ?CO?TEST
  +--> ?PR?_GUI_DRAWBMP?GUI
  +--> ?PR?_DELAY_MS?SYS

?PR?_GUI_DRAWBMP?GUI                   0008H    000BH
  +--> ?PR?_OLED_SET_POS?OLED
  +--> ?PR?_OLED_WR_BYTE?OLED



SYMBOL TABLE OF MODULE:  ..\OBJ\TEST_OLED (MAIN)

  VALUE           TYPE          NAME
  ----------------------------------

  -------         MODULE        MAIN
  C:0000H         SYMBOL        _ICE_DUMMY_
  C:1BE6H         PUBLIC        main
  -------         PROC          MAIN
  C:1BE6H         LINE#         51
  C:1BE6H         LINE#         52
  C:1BE6H         LINE#         53
  C:1BE9H         LINE#         54
  C:1BEFH         LINE#         55
  C:1BEFH         LINE#         56
  C:1BEFH         LINE#         57
  C:1BF2H         LINE#         58
  C:1BF8H         LINE#         59
  C:1BFBH         LINE#         60
  C:1C01H         LINE#         61
  C:1C04H         LINE#         62
  C:1C0AH         LINE#         63
  C:1C0DH         LINE#         64
  C:1C13H         LINE#         65
  C:1C16H         LINE#         66
  C:1C1CH         LINE#         67
  C:1C1FH         LINE#         68
  C:1C25H         LINE#         69
  -------         ENDPROC       MAIN
  -------         ENDMOD        MAIN
BL51 BANKED LINKER/LOCATER V6.22.4.0                                                  12/13/2024  17:02:31  PAGE 5



  -------         MODULE        GUI
  C:0000H         SYMBOL        _ICE_DUMMY_
  C:0A21H         PUBLIC        cfont32
  C:08F9H         PUBLIC        cfont24
  C:082DH         PUBLIC        cfont16
  C:19BDH         PUBLIC        _GUI_ShowCHinese
  C:1777H         PUBLIC        _GUI_ShowNum
  C:0003H         PUBLIC        F6x8
  C:18B5H         PUBLIC        _GUI_DrawBMP
  C:023DH         PUBLIC        F8X16
  C:1C63H         SYMBOL        _mypow
  C:1B4FH         PUBLIC        _GUI_Fill
  C:1A3AH         PUBLIC        _GUI_ShowString
  C:14B9H         PUBLIC        _GUI_ShowFont32
  C:13C1H         PUBLIC        _GUI_ShowFont24
  C:12BCH         PUBLIC        _GUI_ShowChar
  C:15B1H         PUBLIC        _GUI_ShowFont16
  -------         PROC          _GUI_FILL
  D:0008H         SYMBOL        sx
  D:0009H         SYMBOL        sy
  D:0003H         SYMBOL        ex
  D:000BH         SYMBOL        ey
  D:000CH         SYMBOL        color
  -------         DO            
  D:000DH         SYMBOL        i
  D:000EH         SYMBOL        j
  D:000FH         SYMBOL        dat
  D:0010H         SYMBOL        width
  D:0011H         SYMBOL        height
  -------         ENDDO         
  C:1B4FH         LINE#         65
  C:1B53H         LINE#         66
  C:1B53H         LINE#         68
  C:1B5AH         LINE#         69
  C:1B62H         LINE#         70
  C:1B66H         LINE#         71
  C:1B66H         LINE#         72
  C:1B69H         LINE#         73
  C:1B6BH         LINE#         75
  C:1B6BH         LINE#         76
  C:1B6EH         LINE#         77
  C:1B6EH         LINE#         78
  C:1B78H         LINE#         79
  C:1B78H         LINE#         80
  C:1B82H         LINE#         81
  C:1B8CH         LINE#         82
  C:1B8CH         LINE#         83
  C:1B97H         LINE#         84
  C:1B9BH         LINE#         85
  C:1B9FH         LINE#         86
  -------         ENDPROC       _GUI_FILL
  -------         PROC          _GUI_SHOWCHAR
  D:0015H         SYMBOL        x
  D:0016H         SYMBOL        y
  D:0003H         SYMBOL        chr
  D:0018H         SYMBOL        Char_Size
BL51 BANKED LINKER/LOCATER V6.22.4.0                                                  12/13/2024  17:02:31  PAGE 6


  D:0019H         SYMBOL        mode
  -------         DO            
  D:001AH         SYMBOL        c
  D:001BH         SYMBOL        i
  D:001CH         SYMBOL        j
  -------         ENDDO         
  C:12BCH         LINE#         101
  C:12C0H         LINE#         102
  C:12C0H         LINE#         103
  C:12C7H         LINE#         104
  C:12CCH         LINE#         105
  C:12D3H         LINE#         106
  C:12D3H         LINE#         107
  C:12D6H         LINE#         108
  C:12DAH         LINE#         109
  C:12DAH         LINE#         110
  C:12E3H         LINE#         111
  C:12E3H         LINE#         112
  C:12E5H         LINE#         113
  C:12E5H         LINE#         114
  C:12EFH         LINE#         115
  C:12F2H         LINE#         116
  C:12F2H         LINE#         117
  C:12F9H         LINE#         118
  C:12F9H         LINE#         119
  C:131EH         LINE#         120
  C:1320H         LINE#         122
  C:1320H         LINE#         123
  C:134EH         LINE#         124
  C:134EH         LINE#         125
  C:1357H         LINE#         126
  C:1361H         LINE#         127
  C:1361H         LINE#         129
  C:1361H         LINE#         130
  C:1368H         LINE#         131
  C:136BH         LINE#         132
  C:136BH         LINE#         133
  C:1372H         LINE#         134
  C:1372H         LINE#         135
  C:138FH         LINE#         136
  C:1391H         LINE#         138
  C:1391H         LINE#         139
  C:13B7H         LINE#         140
  C:13B7H         LINE#         141
  C:13C0H         LINE#         142
  C:13C0H         LINE#         143
  -------         ENDPROC       _GUI_SHOWCHAR
  -------         PROC          _GUI_SHOWSTRING
  D:0008H         SYMBOL        x
  D:0009H         SYMBOL        y
  D:000AH         SYMBOL        chr
  D:000DH         SYMBOL        Char_Size
  D:000EH         SYMBOL        mode
  -------         DO            
  D:000FH         SYMBOL        j
  D:0010H         SYMBOL        csize
  -------         ENDDO         
BL51 BANKED LINKER/LOCATER V6.22.4.0                                                  12/13/2024  17:02:31  PAGE 7


  C:1A3AH         LINE#         158
  C:1A44H         LINE#         159
  C:1A44H         LINE#         160
  C:1A47H         LINE#         161
  C:1A4CH         LINE#         162
  C:1A4CH         LINE#         163
  C:1A50H         LINE#         164
  C:1A52H         LINE#         165
  C:1A58H         LINE#         166
  C:1A58H         LINE#         167
  C:1A60H         LINE#         168
  C:1A60H         LINE#         170
  C:1A60H         LINE#         172
  C:1A60H         LINE#         173
  C:1A72H         LINE#         174
  C:1A72H         LINE#         175
  C:1A7FH         LINE#         176
  C:1A85H         LINE#         177
  C:1A8AH         LINE#         178
  C:1A8AH         LINE#         179
  C:1A8DH         LINE#         180
  C:1A98H         LINE#         181
  C:1A98H         LINE#         182
  C:1A9AH         LINE#         183
  C:1A9CH         LINE#         184
  -------         ENDPROC       _GUI_SHOWSTRING
  -------         PROC          _MYPOW
  D:0015H         SYMBOL        m
  D:0016H         SYMBOL        n
  -------         DO            
  D:0017H         SYMBOL        result
  -------         ENDDO         
  C:1C63H         LINE#         194
  C:1C67H         LINE#         195
  C:1C67H         LINE#         196
  C:1C71H         LINE#         197
  C:1C93H         LINE#         198
  C:1C9BH         LINE#         199
  -------         ENDPROC       _MYPOW
  -------         PROC          _GUI_SHOWNUM
  D:0008H         SYMBOL        x
  D:0009H         SYMBOL        y
  D:000AH         SYMBOL        num
  D:000EH         SYMBOL        len
  D:000FH         SYMBOL        Size
  D:0010H         SYMBOL        mode
  -------         DO            
  D:0011H         SYMBOL        t
  D:0012H         SYMBOL        temp
  D:0013H         SYMBOL        enshow
  D:0014H         SYMBOL        csize
  -------         ENDDO         
  C:1777H         LINE#         215
  C:177BH         LINE#         216
  C:177BH         LINE#         218
  C:177EH         LINE#         219
  C:1783H         LINE#         220
BL51 BANKED LINKER/LOCATER V6.22.4.0                                                  12/13/2024  17:02:31  PAGE 8


  C:1783H         LINE#         221
  C:1787H         LINE#         222
  C:1789H         LINE#         223
  C:1792H         LINE#         224
  C:1792H         LINE#         225
  C:179AH         LINE#         226
  C:179AH         LINE#         228
  C:179AH         LINE#         230
  C:179AH         LINE#         231
  C:17A4H         LINE#         232
  C:17A4H         LINE#         233
  C:17D0H         LINE#         234
  C:17DEH         LINE#         235
  C:17DEH         LINE#         236
  C:17E2H         LINE#         237
  C:17E2H         LINE#         238
  C:17F3H         LINE#         239
  C:17F5H         LINE#         240
  C:17F5H         LINE#         242
  C:17F5H         LINE#         243
  C:17F8H         LINE#         244
  C:17F8H         LINE#         245
  C:17F8H         LINE#         246
  C:1811H         LINE#         247
  C:1815H         LINE#         248
  -------         ENDPROC       _GUI_SHOWNUM
  -------         PROC          _GUI_SHOWFONT16
  D:000FH         SYMBOL        x
  D:0010H         SYMBOL        y
  D:0011H         SYMBOL        s
  D:0014H         SYMBOL        mode
  -------         DO            
  D:0015H         SYMBOL        i
  D:0016H         SYMBOL        j
  D:0017H         SYMBOL        k
  D:0018H         SYMBOL        tmp
  D:0019H         SYMBOL        num
  -------         ENDDO         
  C:15B1H         LINE#         262
  C:15BBH         LINE#         263
  C:15BBH         LINE#         266
  C:15C1H         LINE#         267
  C:15D1H         LINE#         268
  C:15D1H         LINE#         269
  C:1610H         LINE#         270
  C:1610H         LINE#         271
  C:1612H         LINE#         272
  C:1612H         LINE#         273
  C:161CH         LINE#         274
  C:161FH         LINE#         275
  C:161FH         LINE#         276
  C:1623H         LINE#         277
  C:1623H         LINE#         278
  C:1648H         LINE#         279
  C:164AH         LINE#         281
  C:164AH         LINE#         282
  C:1670H         LINE#         283
BL51 BANKED LINKER/LOCATER V6.22.4.0                                                  12/13/2024  17:02:31  PAGE 9


  C:1670H         LINE#         284
  C:167BH         LINE#         285
  C:1684H         LINE#         286
  C:168EH         LINE#         287
  C:168EH         LINE#         288
  C:168EH         LINE#         289
  C:1693H         LINE#         290
  -------         ENDPROC       _GUI_SHOWFONT16
  -------         PROC          _GUI_SHOWFONT24
  D:000FH         SYMBOL        x
  D:0010H         SYMBOL        y
  D:0011H         SYMBOL        s
  D:0014H         SYMBOL        mode
  -------         DO            
  D:0015H         SYMBOL        i
  D:0016H         SYMBOL        j
  D:0017H         SYMBOL        k
  D:0018H         SYMBOL        tmp
  D:0019H         SYMBOL        num
  -------         ENDDO         
  C:13C1H         LINE#         304
  C:13CBH         LINE#         305
  C:13CBH         LINE#         308
  C:13D1H         LINE#         309
  C:13E1H         LINE#         310
  C:13E1H         LINE#         311
  C:1422H         LINE#         312
  C:1422H         LINE#         313
  C:1424H         LINE#         314
  C:1424H         LINE#         315
  C:142EH         LINE#         316
  C:1431H         LINE#         317
  C:1431H         LINE#         318
  C:1435H         LINE#         319
  C:1435H         LINE#         320
  C:1462H         LINE#         321
  C:1464H         LINE#         323
  C:1464H         LINE#         324
  C:1492H         LINE#         325
  C:1492H         LINE#         326
  C:149DH         LINE#         327
  C:14A6H         LINE#         328
  C:14B3H         LINE#         329
  C:14B3H         LINE#         330
  C:14B3H         LINE#         331
  C:14B8H         LINE#         332
  -------         ENDPROC       _GUI_SHOWFONT24
  -------         PROC          _GUI_SHOWFONT32
  D:000FH         SYMBOL        x
  D:0010H         SYMBOL        y
  D:0011H         SYMBOL        s
  D:0014H         SYMBOL        mode
  -------         DO            
  D:0015H         SYMBOL        i
  D:0016H         SYMBOL        j
  D:0017H         SYMBOL        k
  D:0018H         SYMBOL        tmp
BL51 BANKED LINKER/LOCATER V6.22.4.0                                                  12/13/2024  17:02:31  PAGE 10


  D:0019H         SYMBOL        num
  -------         ENDDO         
  C:14B9H         LINE#         346
  C:14C3H         LINE#         347
  C:14C3H         LINE#         350
  C:14C9H         LINE#         351
  C:14D9H         LINE#         352
  C:14D9H         LINE#         353
  C:151AH         LINE#         354
  C:151AH         LINE#         355
  C:151CH         LINE#         356
  C:151CH         LINE#         357
  C:1526H         LINE#         358
  C:1529H         LINE#         359
  C:1529H         LINE#         360
  C:152DH         LINE#         361
  C:152DH         LINE#         362
  C:155AH         LINE#         363
  C:155CH         LINE#         365
  C:155CH         LINE#         366
  C:158AH         LINE#         367
  C:158AH         LINE#         368
  C:1595H         LINE#         369
  C:159EH         LINE#         370
  C:15ABH         LINE#         371
  C:15ABH         LINE#         372
  C:15ABH         LINE#         373
  C:15B0H         LINE#         374
  -------         ENDPROC       _GUI_SHOWFONT32
  -------         PROC          _GUI_SHOWCHINESE
  D:0008H         SYMBOL        x
  D:0009H         SYMBOL        y
  D:000AH         SYMBOL        hsize
  D:000BH         SYMBOL        str
  D:000EH         SYMBOL        mode
  C:19BDH         LINE#         389
  C:19C3H         LINE#         390
  C:19C3H         LINE#         391
  C:19CEH         LINE#         392
  C:19CEH         LINE#         393
  C:19D3H         LINE#         394
  C:19D3H         LINE#         395
  C:19DDH         LINE#         396
  C:19DFH         LINE#         397
  C:19E4H         LINE#         398
  C:19E4H         LINE#         399
  C:19F4H         LINE#         400
  C:19F6H         LINE#         401
  C:19FCH         LINE#         402
  C:19FCH         LINE#         403
  C:1A0CH         LINE#         404
  C:1A0CH         LINE#         406
  C:1A0CH         LINE#         408
  C:1A0CH         LINE#         409
  C:1A12H         LINE#         410
  C:1A1EH         LINE#         411
  C:1A1EH         LINE#         412
BL51 BANKED LINKER/LOCATER V6.22.4.0                                                  12/13/2024  17:02:31  PAGE 11


  C:1A21H         LINE#         413
  C:1A2CH         LINE#         414
  C:1A2CH         LINE#         415
  C:1A37H         LINE#         416
  C:1A39H         LINE#         417
  -------         ENDPROC       _GUI_SHOWCHINESE
  -------         PROC          _GUI_DRAWBMP
  D:0008H         SYMBOL        x
  D:0009H         SYMBOL        y
  D:000AH         SYMBOL        width
  D:000BH         SYMBOL        height
  D:000CH         SYMBOL        BMP
  D:000FH         SYMBOL        mode
  -------         DO            
  D:0010H         SYMBOL        i
  D:0011H         SYMBOL        j
  D:0012H         SYMBOL        tmp
  -------         ENDDO         
  C:18B5H         LINE#         433
  C:18BBH         LINE#         434
  C:18BBH         LINE#         437
  C:18D7H         LINE#         438
  C:18D7H         LINE#         439
  C:18E1H         LINE#         440
  C:18EBH         LINE#         441
  C:18EBH         LINE#         442
  C:18EFH         LINE#         443
  C:18EFH         LINE#         444
  C:1909H         LINE#         445
  C:190BH         LINE#         447
  C:190BH         LINE#         448
  C:1926H         LINE#         449
  C:1926H         LINE#         450
  C:1931H         LINE#         451
  C:1935H         LINE#         452
  C:1939H         LINE#         453
  -------         ENDPROC       _GUI_DRAWBMP
  -------         ENDMOD        GUI

  -------         MODULE        TEST
  C:0000H         SYMBOL        _ICE_DUMMY_
  C:1D16H         PUBLIC        TEST_BMP
  C:193AH         PUBLIC        TEST_Number_Character
  C:1C27H         PUBLIC        Test_Color
  C:0D4DH         PUBLIC        BMP2
  C:1A9DH         PUBLIC        TEST_MainPage
  C:1816H         PUBLIC        TEST_Chinese
  C:1AF7H         PUBLIC        TEST_English
  -------         PROC          TEST_MAINPAGE
  C:1A9DH         LINE#         60
  C:1A9DH         LINE#         61
  C:1A9DH         LINE#         62
  C:1AB0H         LINE#         63
  C:1AC3H         LINE#         64
  C:1AD6H         LINE#         65
  C:1AE9H         LINE#         66
  C:1AF0H         LINE#         67
BL51 BANKED LINKER/LOCATER V6.22.4.0                                                  12/13/2024  17:02:31  PAGE 12


  -------         ENDPROC       TEST_MAINPAGE
  -------         PROC          TEST_COLOR
  C:1C27H         LINE#         77
  C:1C27H         LINE#         78
  C:1C27H         LINE#         79
  C:1C34H         LINE#         80
  C:1C47H         LINE#         81
  C:1C4EH         LINE#         82
  C:1C5CH         LINE#         83
  -------         ENDPROC       TEST_COLOR
  -------         PROC          TEST_ENGLISH
  C:1AF7H         LINE#         93
  C:1AF7H         LINE#         94
  C:1AF7H         LINE#         95
  C:1B09H         LINE#         96
  C:1B1CH         LINE#         97
  C:1B23H         LINE#         98
  C:1B35H         LINE#         99
  C:1B48H         LINE#         100
  -------         ENDPROC       TEST_ENGLISH
  -------         PROC          TEST_NUMBER_CHARACTER
  C:193AH         LINE#         110
  C:193AH         LINE#         111
  C:193AH         LINE#         112
  C:1947H         LINE#         113
  C:1959H         LINE#         114
  C:1975H         LINE#         115
  C:197CH         LINE#         116
  C:1982H         LINE#         117
  C:1994H         LINE#         118
  C:19B0H         LINE#         119
  C:19B7H         LINE#         120
  -------         ENDPROC       TEST_NUMBER_CHARACTER
  -------         PROC          TEST_CHINESE
  C:1816H         LINE#         130
  C:1816H         LINE#         131
  C:1816H         LINE#         132
  C:1829H         LINE#         133
  C:183EH         LINE#         134
  C:1845H         LINE#         135
  C:184BH         LINE#         136
  C:185EH         LINE#         137
  C:1873H         LINE#         138
  C:187AH         LINE#         139
  C:1880H         LINE#         140
  C:1893H         LINE#         141
  C:18A8H         LINE#         142
  C:18AFH         LINE#         143
  -------         ENDPROC       TEST_CHINESE
  -------         PROC          TEST_BMP
  C:1D16H         LINE#         153
  C:1D16H         LINE#         154
  C:1D16H         LINE#         155
  C:1D2DH         LINE#         156
  -------         ENDPROC       TEST_BMP
  -------         ENDMOD        TEST

BL51 BANKED LINKER/LOCATER V6.22.4.0                                                  12/13/2024  17:02:31  PAGE 13


  -------         MODULE        SYS
  C:0000H         SYMBOL        _ICE_DUMMY_
  C:1CF6H         PUBLIC        _delay_ms
  -------         PROC          _DELAY_MS
  D:0006H         SYMBOL        ms
  -------         DO            
  D:0004H         SYMBOL        i
  D:0002H         SYMBOL        j
  -------         ENDDO         
  C:1CF6H         LINE#         54
  C:1CF6H         LINE#         55
  C:1CF6H         LINE#         57
  C:1D00H         LINE#         58
  C:1D15H         LINE#         59
  -------         ENDPROC       _DELAY_MS
  -------         ENDMOD        SYS

  -------         MODULE        OLED
  C:0000H         SYMBOL        _ICE_DUMMY_
  D:0090H         PUBLIC        P1
  C:1694H         PUBLIC        OLED_Init
  C:1D3AH         PUBLIC        _OLED_WR_Byte
  C:1C9CH         PUBLIC        _OLED_Set_Pos
  C:1BA0H         PUBLIC        _OLED_Clear
  C:1D36H         SYMBOL        L?0016
  -------         PROC          L?0015
  -------         ENDPROC       L?0015
  C:1D36H         SYMBOL        L?0016
  -------         PROC          _OLED_WR_BYTE
  D:001EH         SYMBOL        dat
  D:0004H         SYMBOL        cmd
  C:1D3AH         LINE#         72
  C:1D3EH         LINE#         73
  C:1D3EH         LINE#         74
  C:1D42H         LINE#         75
  C:1D42H         LINE#         76
  C:1D45H         LINE#         77
  C:1D45H         LINE#         79
  C:1D45H         LINE#         80
  C:1D4AH         LINE#         81
  C:1D4AH         LINE#         82
  -------         ENDPROC       _OLED_WR_BYTE
  -------         PROC          _OLED_SET_POS
  D:001DH         SYMBOL        x
  D:0005H         SYMBOL        y
  C:1C9CH         LINE#         92
  C:1C9EH         LINE#         93
  C:1C9EH         LINE#         94
  C:1CABH         LINE#         95
  C:1CBFH         LINE#         96
  -------         ENDPROC       _OLED_SET_POS
  -------         PROC          _OLED_CLEAR
  D:0006H         SYMBOL        dat
  -------         DO            
  D:0008H         SYMBOL        i
  D:0009H         SYMBOL        n
  D:000AH         SYMBOL        color
BL51 BANKED LINKER/LOCATER V6.22.4.0                                                  12/13/2024  17:02:31  PAGE 14


  -------         ENDDO         
  C:1BA0H         LINE#         137
  C:1BA0H         LINE#         138
  C:1BA0H         LINE#         140
  C:1BA4H         LINE#         141
  C:1BA4H         LINE#         142
  C:1BA7H         LINE#         143
  C:1BA9H         LINE#         145
  C:1BA9H         LINE#         146
  C:1BACH         LINE#         147
  C:1BACH         LINE#         148
  C:1BAFH         LINE#         149
  C:1BAFH         LINE#         150
  C:1BBDH         LINE#         151
  C:1BC0H         LINE#         152
  C:1BC5H         LINE#         153
  C:1BC8H         LINE#         154
  C:1BC8H         LINE#         155
  C:1BD3H         LINE#         156
  C:1BDCH         LINE#         157
  C:1BE5H         LINE#         158
  -------         ENDPROC       _OLED_CLEAR
  -------         PROC          OLED_INIT
  C:1694H         LINE#         167
  C:1694H         LINE#         168
  C:1694H         LINE#         170
  C:169DH         LINE#         171
  C:16A0H         LINE#         172
  C:16A9H         LINE#         173
  C:16B2H         LINE#         174
  C:16BBH         LINE#         175
  C:16C4H         LINE#         176
  C:16CDH         LINE#         177
  C:16D6H         LINE#         178
  C:16DFH         LINE#         179
  C:16E8H         LINE#         180
  C:16F1H         LINE#         181
  C:16FAH         LINE#         182
  C:1703H         LINE#         183
  C:170CH         LINE#         184
  C:1715H         LINE#         185
  C:171EH         LINE#         186
  C:1726H         LINE#         187
  C:172FH         LINE#         188
  C:1738H         LINE#         189
  C:1741H         LINE#         190
  C:174AH         LINE#         191
  C:1753H         LINE#         192
  C:175CH         LINE#         193
  C:1765H         LINE#         194
  C:176EH         LINE#         195
  -------         ENDPROC       OLED_INIT
  -------         ENDMOD        OLED

  -------         MODULE        IIC
  C:0000H         SYMBOL        _ICE_DUMMY_
  D:0090H         PUBLIC        P1
BL51 BANKED LINKER/LOCATER V6.22.4.0                                                  12/13/2024  17:02:31  PAGE 15


  C:1D69H         PUBLIC        _Write_IIC_Data
  C:1CD7H         PUBLIC        _Write_IIC_Byte
  C:1D56H         PUBLIC        IIC_Wait_Ack
  C:1D83H         PUBLIC        IIC_Start
  C:1D8CH         PUBLIC        IIC_Stop
  B:0090H.5       PUBLIC        OLED_SDA
  C:1D5BH         PUBLIC        _Write_IIC_Command
  B:0090H.7       PUBLIC        OLED_SCL
  -------         PROC          IIC_START
  C:1D83H         LINE#         54
  C:1D83H         LINE#         55
  C:1D83H         LINE#         56
  C:1D85H         LINE#         57
  C:1D87H         LINE#         58
  C:1D89H         LINE#         59
  C:1D8BH         LINE#         60
  -------         ENDPROC       IIC_START
  -------         PROC          IIC_STOP
  C:1D8CH         LINE#         69
  C:1D8CH         LINE#         70
  C:1D8CH         LINE#         72
  C:1D8EH         LINE#         73
  C:1D90H         LINE#         74
  -------         ENDPROC       IIC_STOP
  -------         PROC          L?0012
  -------         ENDPROC       L?0012
  -------         PROC          IIC_WAIT_ACK
  C:1D56H         LINE#         83
  C:1D56H         LINE#         84
  C:1D56H         LINE#         85
  C:1D58H         LINE#         86
  C:1D5AH         LINE#         87
  -------         ENDPROC       IIC_WAIT_ACK
  -------         PROC          L?0013
  -------         ENDPROC       L?0013
  -------         PROC          _WRITE_IIC_BYTE
  D:0007H         SYMBOL        IIC_Byte
  -------         DO            
  D:0006H         SYMBOL        i
  D:0005H         SYMBOL        m
  D:0007H         SYMBOL        da
  -------         ENDDO         
  C:1CD7H         LINE#         96
  C:1CD7H         LINE#         97
  C:1CD7H         LINE#         100
  C:1CD7H         LINE#         101
  C:1CD9H         LINE#         102
  C:1CDBH         LINE#         103
  C:1CDBH         LINE#         104
  C:1CDDH         LINE#         105
  C:1CE0H         LINE#         106
  C:1CE3H         LINE#         107
  C:1CE3H         LINE#         108
  C:1CE5H         LINE#         109
  C:1CE7H         LINE#         111
  C:1CE7H         LINE#         112
  C:1CE9H         LINE#         113
BL51 BANKED LINKER/LOCATER V6.22.4.0                                                  12/13/2024  17:02:31  PAGE 16


  C:1CE9H         LINE#         114
  C:1CEDH         LINE#         115
  C:1CEFH         LINE#         116
  C:1CF1H         LINE#         117
  C:1CF5H         LINE#         118
  -------         ENDPROC       _WRITE_IIC_BYTE
  -------         PROC          _WRITE_IIC_COMMAND
  D:0004H         SYMBOL        IIC_Command
  C:1D5BH         LINE#         127
  C:1D5BH         LINE#         128
  C:1D5BH         LINE#         129
  C:1D5BH         LINE#         130
  C:1D5EH         LINE#         131
  C:1D61H         LINE#         132
  C:1D63H         LINE#         133
  C:1D63H         LINE#         134
  C:1D63H         LINE#         135
  C:1D66H         LINE#         136
  -------         ENDPROC       _WRITE_IIC_COMMAND
  -------         PROC          _WRITE_IIC_DATA
  D:0004H         SYMBOL        IIC_Data
  C:1D69H         LINE#         146
  C:1D69H         LINE#         147
  C:1D69H         LINE#         148
  C:1D69H         LINE#         149
  C:1D6CH         LINE#         150
  C:1D6FH         LINE#         151
  C:1D71H         LINE#         152
  C:1D71H         LINE#         153
  C:1D71H         LINE#         154
  C:1D74H         LINE#         155
  -------         ENDPROC       _WRITE_IIC_DATA
  -------         ENDMOD        IIC

  -------         MODULE        ?C?CLDPTR
  C:114DH         PUBLIC        ?C?CLDPTR
  -------         ENDMOD        ?C?CLDPTR

  -------         MODULE        ?C?CLDOPTR
  C:1166H         PUBLIC        ?C?CLDOPTR
  -------         ENDMOD        ?C?CLDOPTR

  -------         MODULE        ?C?LMUL
  C:1193H         PUBLIC        ?C?LMUL
  -------         ENDMOD        ?C?LMUL

  -------         MODULE        ?C?ULDIV
  C:121EH         PUBLIC        ?C?ULDIV
  -------         ENDMOD        ?C?ULDIV

  -------         MODULE        ?C?OFFXADD
  C:12B0H         PUBLIC        ?C?OFFXADD
  -------         ENDMOD        ?C?OFFXADD

Program Size: data=33.0 xdata=0 code=7569
LINK/LOCATE RUN COMPLETE.  0 WARNING(S),  0 ERROR(S)
